; Function Attrs: mustprogress uwtable
define void @proj_context_use_proj4_init_rules(ptr noundef writeonly %0, i32 noundef %1) local_unnamed_addr #1 {
  %3 = icmp eq ptr %0, null
  br i1 %3, label %4, label %6

4:                                                ; preds = %2
  %5 = tail call noundef ptr @_Z18pj_get_default_ctxv()
  br label %6

6:                                                ; preds = %4, %2
  %.0 = phi ptr [ %5, %4 ], [ %0, %2 ]
  %7 = getelementptr inbounds i8, ptr %.0, i64 72
  store i32 %1, ptr %7, align 8
  ret void
}